target datalayout = "e-m:e-p270:32:32-p271:32:32-p272:64:64-i64:64-i128:128-f80:128-n8:16:32:64-S128"
target triple = "x86_64-pc-linux-gnu"

%struct.Sim_Man_t_ = type { ptr, i32, i32, i32, i32, i32, ptr, ptr, i32, i32, ptr, ptr, ptr, i32, ptr, ptr, ptr, i32, i32, i32, i64, i64, i64, i64, i64 }
%struct.Sim_Pat_t_ = type { i32, i32, ptr }

; Function Attrs: nounwind uwtable
define ptr @Sim_ManPatAlloc(ptr noundef %0) #0 {
  %2 = alloca ptr, align 8
  %3 = alloca ptr, align 8
  store ptr %0, ptr %2, align 8, !tbaa !87
  call void @llvm.lifetime.start.p0(i64 8, ptr %3) #10
  %4 = load ptr, ptr %2, align 8, !tbaa !87
  %5 = getelementptr inbounds nuw %struct.Sim_Man_t_, ptr %4, i32 0, i32 14
  %6 = load ptr, ptr %5, align 8, !tbaa !103
  %7 = call ptr @Extra_MmFixedEntryFetch(ptr noundef %6)
  store ptr %7, ptr %3, align 8, !tbaa !116
  %8 = load ptr, ptr %3, align 8, !tbaa !116
  %9 = getelementptr inbounds nuw %struct.Sim_Pat_t_, ptr %8, i32 0, i32 1
  store i32 -1, ptr %9, align 4, !tbaa !118
  %10 = load ptr, ptr %3, align 8, !tbaa !116
  %11 = getelementptr inbounds nuw i8, ptr %10, i64 16
  %12 = load ptr, ptr %3, align 8, !tbaa !116
  %13 = getelementptr inbounds nuw %struct.Sim_Pat_t_, ptr %12, i32 0, i32 2
  store ptr %11, ptr %13, align 8, !tbaa !120
  %14 = load ptr, ptr %3, align 8, !tbaa !116
  %15 = getelementptr inbounds nuw %struct.Sim_Pat_t_, ptr %14, i32 0, i32 2
  %16 = load ptr, ptr %15, align 8, !tbaa !120
  %17 = load ptr, ptr %2, align 8, !tbaa !87
  %18 = getelementptr inbounds nuw %struct.Sim_Man_t_, ptr %17, i32 0, i32 9
  %19 = load i32, ptr %18, align 4, !tbaa !100
  %20 = sext i32 %19 to i64
  %21 = mul i64 %20, 4
  call void @llvm.memset.p0.i64(ptr align 4 %16, i8 0, i64 %21, i1 false)
  %22 = load ptr, ptr %3, align 8, !tbaa !116
  call void @llvm.lifetime.end.p0(i64 8, ptr %3) #10
  ret ptr %22
}