; Function Attrs: nounwind uwtable
define ptr @Sim_ManPatAlloc(ptr noundef readonly captures(none) %0) local_unnamed_addr #0 {
  %2 = getelementptr inbounds nuw i8, ptr %0, i64 88
  %3 = load ptr, ptr %2, align 8, !tbaa !101
  %4 = tail call ptr @Extra_MmFixedEntryFetch(ptr noundef %3) #12
  %5 = getelementptr inbounds nuw i8, ptr %4, i64 4
  store i32 -1, ptr %5, align 4, !tbaa !112
  %6 = getelementptr inbounds nuw i8, ptr %4, i64 16
  %7 = getelementptr inbounds nuw i8, ptr %4, i64 8
  store ptr %6, ptr %7, align 8, !tbaa !114
  %8 = getelementptr inbounds nuw i8, ptr %0, i64 52
  %9 = load i32, ptr %8, align 4, !tbaa !98
  %10 = sext i32 %9 to i64
  %11 = shl nsw i64 %10, 2
  tail call void @llvm.memset.p0.i64(ptr nonnull align 4 %6, i8 0, i64 %11, i1 false)
  ret ptr %4
}